Certificate:
    Data:
        Version: 3 (0x2)
        Serial Number: 4096 (0x1000)
        Signature Algorithm: sha256WithRSAEncryption
        Issuer: CN=www.modelCA.com, O=Model CA LTD., C=US
        Validity
            Not Before: Feb 13 03:16:52 2022 GMT
            Not After : Feb 11 03:16:52 2032 GMT
        Subject: C=US, O=Bank32 Inc., CN=www.bank32.com
        Subject Public Key Info:
            Public Key Algorithm: rsaEncryption
                RSA Public-Key: (2048 bit)
                Modulus:
                    00:cc:e0:63:ba:4e:51:72:2c:a0:b6:7a:ac:a8:64:
                    81:ef:dd:cf:90:86:50:60:9e:2c:e8:9f:b1:ee:36:
                    5f:b1:3a:9a:1c:8e:21:41:e6:2e:a6:7e:08:5d:25:
                    42:5b:02:c6:2f:28:fa:b7:e3:b8:14:97:3e:0d:a3:
                    b1:38:ed:57:7d:91:00:7d:d1:b6:a1:65:1c:23:02:
                    dc:94:9a:46:19:c7:d4:64:04:9d:d5:d9:51:7c:2b:
                    13:05:20:85:bb:c7:6f:6a:82:1a:76:7e:a9:2f:bb:
                    78:33:20:c0:c6:5a:e8:a8:8f:dd:61:34:ad:ad:09:
                    62:d1:da:8d:a2:70:28:b5:3d:25:a1:9a:5b:a5:da:
                    d9:d8:f4:d4:f2:0f:59:34:c1:4a:7d:12:af:14:7b:
                    22:05:6f:6d:44:88:c5:db:3c:60:86:67:6f:17:6b:
                    50:af:96:5d:6e:58:4e:fd:41:ca:a7:d5:86:40:df:
                    de:b2:95:83:22:79:db:fc:40:f8:dc:30:1e:c0:00:
                    bb:c7:82:91:a9:be:51:0e:01:23:68:af:4d:e4:d3:
                    23:0f:1f:ea:07:be:01:f7:42:cc:b5:5c:dc:40:2d:
                    fc:b0:e7:8c:5e:34:d9:85:df:de:ec:4e:24:51:99:
                    60:83:68:f2:f4:b8:d5:5c:4c:9f:17:ab:4d:16:30:
                    4a:51
                Exponent: 65537 (0x10001)
        X509v3 extensions:
            X509v3 Basic Constraints: 
                CA:FALSE
            Netscape Comment: 
                OpenSSL Generated Certificate
            X509v3 Subject Key Identifier: 
                A7:49:E0:AA:FF:D2:D9:50:76:E3:C1:8C:50:CF:06:AF:45:F6:65:3D
            X509v3 Authority Key Identifier: 
                keyid:68:CB:D8:02:A4:11:CC:1F:87:1B:AA:E5:39:CA:34:98:8C:10:77:1D

    Signature Algorithm: sha256WithRSAEncryption
         b6:6e:2a:7a:06:62:8c:33:f0:e6:ef:d7:40:35:60:59:a1:e6:
         dd:7b:0c:24:8c:9e:9c:f1:1f:a7:ef:07:66:e6:7d:a2:77:d6:
         0f:1d:42:81:4a:29:be:f8:f9:1f:03:3b:3e:28:84:d4:aa:50:
         1f:5b:d9:38:35:7d:e7:4d:c7:b1:e1:f2:2f:7d:1f:22:71:1c:
         9f:d7:a6:75:c6:f3:81:d8:f3:08:72:ef:62:63:03:62:d2:c9:
         65:63:0d:99:bf:ff:20:21:80:83:60:82:6c:0f:9d:28:88:a7:
         85:6f:96:b4:6a:f6:61:b9:ad:fa:ec:dc:66:2b:9f:cc:3b:78:
         74:30:bc:9f:57:ed:1c:2a:4b:be:11:a8:70:ff:fd:9e:f9:07:
         5b:cc:e5:35:8a:33:60:c8:43:de:26:bd:2b:ad:69:4b:c1:c3:
         d9:66:92:38:f6:79:5a:29:8a:a2:12:e3:be:d2:00:db:50:29:
         ff:9b:04:bc:6e:65:68:27:3d:4b:8e:28:d4:1b:42:88:11:df:
         7f:9c:5a:63:6d:cd:3a:63:8c:c0:bb:2b:cb:02:cd:b4:46:60:
         e5:22:8a:e6:c9:00:e3:0c:73:3c:39:db:4e:46:8c:bc:f1:4a:
         31:a0:be:55:81:1c:82:7f:05:a7:1c:69:61:77:c8:af:cd:31:
         59:2c:95:52:f3:32:24:76:ce:00:01:d8:9a:d7:19:a1:8f:8e:
         77:80:ac:30:ce:46:c9:46:96:e5:47:c5:45:f6:df:65:1d:0c:
         9d:8a:54:39:0d:bf:d4:e6:bb:6d:fe:71:9f:86:a6:34:a3:63:
         06:d0:92:38:4b:ca:d7:52:b9:d3:f9:7a:80:a9:bd:81:1b:3c:
         68:b6:dd:ca:b3:5e:02:dd:81:8b:3d:48:a0:28:70:51:d9:2e:
         5e:a6:79:92:45:22:a1:a5:7b:3d:db:67:a9:55:77:b2:29:12:
         bc:88:96:7f:7e:6c:f3:40:ae:d0:e0:61:a1:5b:b8:24:72:90:
         b1:df:35:90:ff:dc:98:d0:a4:07:f9:78:e1:a5:01:0d:ca:64:
         76:a6:c3:28:f1:7a:3c:02:b1:2f:4e:d8:e6:ab:49:76:f0:47:
         ed:01:96:60:a7:fd:b1:83:79:d4:2a:ac:86:60:d8:dc:d7:49:
         b4:c1:da:1c:d0:31:62:39:dc:76:f0:9b:c7:f4:5d:29:10:13:
         f3:02:df:78:b2:e1:f1:21:26:99:01:3a:f2:76:75:8e:7e:1e:
         75:ff:5f:c9:f3:22:b2:48:7e:05:1a:0d:c0:d2:94:51:bf:e0:
         d1:54:2c:3b:52:55:8f:a8:ab:25:53:d2:da:5b:c6:00:2e:b0:
         5c:f7:6f:b2:42:f8:3d:1a
-----BEGIN CERTIFICATE-----
MIIEcjCCAlqgAwIBAgICEAAwDQYJKoZIhvcNAQELBQAwPzEYMBYGA1UEAwwPd3d3
Lm1vZGVsQ0EuY29tMRYwFAYDVQQKDA1Nb2RlbCBDQSBMVEQuMQswCQYDVQQGEwJV
UzAeFw0yMjAyMTMwMzE2NTJaFw0zMjAyMTEwMzE2NTJaMDwxCzAJBgNVBAYTAlVT
MRQwEgYDVQQKDAtCYW5rMzIgSW5jLjEXMBUGA1UEAwwOd3d3LmJhbmszMi5jb20w
ggEiMA0GCSqGSIb3DQEBAQUAA4IBDwAwggEKAoIBAQDM4GO6TlFyLKC2eqyoZIHv
3c+QhlBgnizon7HuNl+xOpocjiFB5i6mfghdJUJbAsYvKPq347gUlz4No7E47Vd9
kQB90bahZRwjAtyUmkYZx9RkBJ3V2VF8KxMFIIW7x29qghp2fqkvu3gzIMDGWuio
j91hNK2tCWLR2o2icCi1PSWhmlul2tnY9NTyD1k0wUp9Eq8UeyIFb21EiMXbPGCG
Z28Xa1Cvll1uWE79Qcqn1YZA396ylYMiedv8QPjcMB7AALvHgpGpvlEOASNor03k
0yMPH+oHvgH3Qsy1XNxALfyw54xeNNmF397sTiRRmWCDaPL0uNVcTJ8Xq00WMEpR
AgMBAAGjezB5MAkGA1UdEwQCMAAwLAYJYIZIAYb4QgENBB8WHU9wZW5TU0wgR2Vu
ZXJhdGVkIENlcnRpZmljYXRlMB0GA1UdDgQWBBSnSeCq/9LZUHbjwYxQzwavRfZl
PTAfBgNVHSMEGDAWgBRoy9gCpBHMH4cbquU5yjSYjBB3HTANBgkqhkiG9w0BAQsF
AAOCAgEAtm4qegZijDPw5u/XQDVgWaHm3XsMJIyenPEfp+8HZuZ9onfWDx1CgUop
vvj5HwM7PiiE1KpQH1vZODV9503HseHyL30fInEcn9emdcbzgdjzCHLvYmMDYtLJ
ZWMNmb//ICGAg2CCbA+dKIinhW+WtGr2Ybmt+uzcZiufzDt4dDC8n1ftHCpLvhGo
cP/9nvkHW8zlNYozYMhD3ia9K61pS8HD2WaSOPZ5WimKohLjvtIA21Ap/5sEvG5l
aCc9S44o1BtCiBHff5xaY23NOmOMwLsrywLNtEZg5SKK5skA4wxzPDnbTkaMvPFK
MaC+VYEcgn8FpxxpYXfIr80xWSyVUvMyJHbOAAHYmtcZoY+Od4CsMM5GyUaW5UfF
RfbfZR0MnYpUOQ2/1Oa7bf5xn4amNKNjBtCSOEvK11K50/l6gKm9gRs8aLbdyrNe
At2Biz1IoChwUdkuXqZ5kkUioaV7PdtnqVV3sikSvIiWf35s80Cu0OBhoVu4JHKQ
sd81kP/cmNCkB/l44aUBDcpkdqbDKPF6PAKxL07Y5qtJdvBH7QGWYKf9sYN51Cqs
hmDY3NdJtMHaHNAxYjncdvCbx/RdKRAT8wLfeLLh8SEmmQE68nZ1jn4edf9fyfMi
skh+BRoNwNKUUb/g0VQsO1JVj6irJVPS2lvGAC6wXPdvskL4PRo=
-----END CERTIFICATE-----
